target datalayout = "e-m:e-p270:32:32-p271:32:32-p272:64:64-i64:64-i128:128-f80:128-n8:16:32:64-S128"
target triple = "x86_64-pc-linux-gnu"

%struct.jpeg_decompress_struct = type { ptr, ptr, ptr, ptr, i32, i32, ptr, i32, i32, i32, i32, i32, i32, i32, double, i32, i32, i32, i32, i32, i32, i32, i32, i32, i32, i32, i32, i32, i32, i32, i32, i32, i32, ptr, i32, i32, i32, i32, i32, ptr, [4 x ptr], [4 x ptr], [4 x ptr], i32, ptr, i32, i32, [16 x i8], [16 x i8], [16 x i8], i32, i32, i8, i8, i8, i16, i16, i32, i8, i32, ptr, i32, i32, i32, i32, ptr, i32, [4 x ptr], i32, i32, i32, [10 x i32], i32, i32, i32, i32, i32, ptr, ptr, ptr, ptr, ptr, ptr, ptr, ptr, ptr, ptr, ptr }
%struct.jpeg_lossless_decompressor = type { %struct.jpeg_inverse_dct, [10 x ptr], ptr }
%struct.jpeg_inverse_dct = type { ptr, [10 x ptr], [10 x ptr] }

; Function Attrs: nounwind uwtable
define internal void @jpeg_undifference_first_row(ptr noundef %0, i32 noundef %1, ptr noundef %2, ptr noundef %3, ptr noundef %4, i32 noundef %5) #0 {
  %7 = alloca ptr, align 8
  %8 = alloca i32, align 4
  %9 = alloca ptr, align 8
  %10 = alloca ptr, align 8
  %11 = alloca ptr, align 8
  %12 = alloca i32, align 4
  %13 = alloca ptr, align 8
  %14 = alloca i32, align 4
  store ptr %0, ptr %7, align 8, !tbaa !3
  store i32 %1, ptr %8, align 4, !tbaa !50
  store ptr %2, ptr %9, align 8, !tbaa !55
  store ptr %3, ptr %10, align 8, !tbaa !55
  store ptr %4, ptr %11, align 8, !tbaa !55
  store i32 %5, ptr %12, align 4, !tbaa !50
  call void @llvm.lifetime.start.p0(i64 8, ptr %13) #2
  %15 = load ptr, ptr %7, align 8, !tbaa !3
  %16 = getelementptr inbounds nuw %struct.jpeg_decompress_struct, ptr %15, i32 0, i32 84
  %17 = load ptr, ptr %16, align 8, !tbaa !42
  store ptr %17, ptr %13, align 8, !tbaa !41
  call void @llvm.lifetime.start.p0(i64 4, ptr %14) #2
  %18 = load ptr, ptr %9, align 8, !tbaa !55
  %19 = getelementptr inbounds nuw i32, ptr %18, i32 1
  store ptr %19, ptr %9, align 8, !tbaa !55
  %20 = load i32, ptr %18, align 4, !tbaa !50
  %21 = load ptr, ptr %7, align 8, !tbaa !3
  %22 = getelementptr inbounds nuw %struct.jpeg_decompress_struct, ptr %21, i32 0, i32 43
  %23 = load i32, ptr %22, align 8, !tbaa !8
  %24 = load ptr, ptr %7, align 8, !tbaa !3
  %25 = getelementptr inbounds nuw %struct.jpeg_decompress_struct, ptr %24, i32 0, i32 75
  %26 = load i32, ptr %25, align 8, !tbaa !49
  %27 = sub nsw i32 %23, %26
  %28 = sub nsw i32 %27, 1
  %29 = shl i32 1, %28
  %30 = add nsw i32 %20, %29
  %31 = and i32 %30, 65535
  store i32 %31, ptr %14, align 4, !tbaa !50
  %32 = load i32, ptr %14, align 4, !tbaa !50
  %33 = load ptr, ptr %11, align 8, !tbaa !55
  %34 = getelementptr inbounds nuw i32, ptr %33, i32 1
  store ptr %34, ptr %11, align 8, !tbaa !55
  store i32 %32, ptr %33, align 4, !tbaa !50
  br label %35

35:                                               ; preds = %39, %6
  %36 = load i32, ptr %12, align 4, !tbaa !50
  %37 = add i32 %36, -1
  store i32 %37, ptr %12, align 4, !tbaa !50
  %38 = icmp ne i32 %37, 0
  br i1 %38, label %39, label %49

39:                                               ; preds = %35
  %40 = load ptr, ptr %9, align 8, !tbaa !55
  %41 = getelementptr inbounds nuw i32, ptr %40, i32 1
  store ptr %41, ptr %9, align 8, !tbaa !55
  %42 = load i32, ptr %40, align 4, !tbaa !50
  %43 = load i32, ptr %14, align 4, !tbaa !50
  %44 = add nsw i32 %42, %43
  %45 = and i32 %44, 65535
  store i32 %45, ptr %14, align 4, !tbaa !50
  %46 = load i32, ptr %14, align 4, !tbaa !50
  %47 = load ptr, ptr %11, align 8, !tbaa !55
  %48 = getelementptr inbounds nuw i32, ptr %47, i32 1
  store ptr %48, ptr %11, align 8, !tbaa !55
  store i32 %46, ptr %47, align 4, !tbaa !50
  br label %35, !llvm.loop !56

49:                                               ; preds = %35
  %50 = load ptr, ptr %7, align 8, !tbaa !3
  %51 = getelementptr inbounds nuw %struct.jpeg_decompress_struct, ptr %50, i32 0, i32 72
  %52 = load i32, ptr %51, align 4, !tbaa !46
  switch i32 %52, label %95 [
    i32 1, label %53
    i32 2, label %59
    i32 3, label %65
    i32 4, label %71
    i32 5, label %77
    i32 6, label %83
    i32 7, label %89
  ]

53:                                               ; preds = %49
  %54 = load ptr, ptr %13, align 8, !tbaa !41
  %55 = getelementptr inbounds nuw %struct.jpeg_lossless_decompressor, ptr %54, i32 0, i32 1
  %56 = load i32, ptr %8, align 4, !tbaa !50
  %57 = sext i32 %56 to i64
  %58 = getelementptr inbounds [10 x ptr], ptr %55, i64 0, i64 %57
  store ptr @jpeg_undifference1, ptr %58, align 8, !tbaa !41
  br label %95

59:                                               ; preds = %49
  %60 = load ptr, ptr %13, align 8, !tbaa !41
  %61 = getelementptr inbounds nuw %struct.jpeg_lossless_decompressor, ptr %60, i32 0, i32 1
  %62 = load i32, ptr %8, align 4, !tbaa !50
  %63 = sext i32 %62 to i64
  %64 = getelementptr inbounds [10 x ptr], ptr %61, i64 0, i64 %63
  store ptr @jpeg_undifference2, ptr %64, align 8, !tbaa !41
  br label %95

65:                                               ; preds = %49
  %66 = load ptr, ptr %13, align 8, !tbaa !41
  %67 = getelementptr inbounds nuw %struct.jpeg_lossless_decompressor, ptr %66, i32 0, i32 1
  %68 = load i32, ptr %8, align 4, !tbaa !50
  %69 = sext i32 %68 to i64
  %70 = getelementptr inbounds [10 x ptr], ptr %67, i64 0, i64 %69
  store ptr @jpeg_undifference3, ptr %70, align 8, !tbaa !41
  br label %95

71:                                               ; preds = %49
  %72 = load ptr, ptr %13, align 8, !tbaa !41
  %73 = getelementptr inbounds nuw %struct.jpeg_lossless_decompressor, ptr %72, i32 0, i32 1
  %74 = load i32, ptr %8, align 4, !tbaa !50
  %75 = sext i32 %74 to i64
  %76 = getelementptr inbounds [10 x ptr], ptr %73, i64 0, i64 %75
  store ptr @jpeg_undifference4, ptr %76, align 8, !tbaa !41
  br label %95

77:                                               ; preds = %49
  %78 = load ptr, ptr %13, align 8, !tbaa !41
  %79 = getelementptr inbounds nuw %struct.jpeg_lossless_decompressor, ptr %78, i32 0, i32 1
  %80 = load i32, ptr %8, align 4, !tbaa !50
  %81 = sext i32 %80 to i64
  %82 = getelementptr inbounds [10 x ptr], ptr %79, i64 0, i64 %81
  store ptr @jpeg_undifference5, ptr %82, align 8, !tbaa !41
  br label %95

83:                                               ; preds = %49
  %84 = load ptr, ptr %13, align 8, !tbaa !41
  %85 = getelementptr inbounds nuw %struct.jpeg_lossless_decompressor, ptr %84, i32 0, i32 1
  %86 = load i32, ptr %8, align 4, !tbaa !50
  %87 = sext i32 %86 to i64
  %88 = getelementptr inbounds [10 x ptr], ptr %85, i64 0, i64 %87
  store ptr @jpeg_undifference6, ptr %88, align 8, !tbaa !41
  br label %95

89:                                               ; preds = %49
  %90 = load ptr, ptr %13, align 8, !tbaa !41
  %91 = getelementptr inbounds nuw %struct.jpeg_lossless_decompressor, ptr %90, i32 0, i32 1
  %92 = load i32, ptr %8, align 4, !tbaa !50
  %93 = sext i32 %92 to i64
  %94 = getelementptr inbounds [10 x ptr], ptr %91, i64 0, i64 %93
  store ptr @jpeg_undifference7, ptr %94, align 8, !tbaa !41
  br label %95

95:                                               ; preds = %49, %89, %83, %77, %71, %65, %59, %53
  call void @llvm.lifetime.end.p0(i64 4, ptr %14) #2
  call void @llvm.lifetime.end.p0(i64 8, ptr %13) #2
  ret void
}