; Function Attrs: nofree norecurse nosync nounwind memory(write, argmem: readwrite, inaccessiblemem: none) uwtable
define internal void @jpeg_undifference_first_row(ptr noundef readonly captures(none) %0, i32 noundef %1, ptr noundef readonly captures(none) %2, ptr readnone captures(none) %3, ptr noundef writeonly captures(none) initializes((0, 4)) %4, i32 noundef %5) #1 {
  %7 = getelementptr inbounds nuw i8, ptr %0, i64 600
  %8 = load ptr, ptr %7, align 8, !tbaa !39
  %9 = load i32, ptr %2, align 4, !tbaa !52
  %10 = getelementptr inbounds nuw i8, ptr %0, i64 296
  %11 = load i32, ptr %10, align 8, !tbaa !3
  %12 = getelementptr inbounds nuw i8, ptr %0, i64 536
  %13 = load i32, ptr %12, align 8, !tbaa !46
  %14 = xor i32 %13, -1
  %15 = add i32 %11, %14
  %16 = shl nuw i32 1, %15
  %17 = add nsw i32 %16, %9
  %18 = and i32 %17, 65535
  store i32 %18, ptr %4, align 4, !tbaa !52
  %19 = add i32 %5, -1
  %.not30 = icmp eq i32 %19, 0
  br i1 %.not30, label %._crit_edge, label %.lr.ph

.lr.ph:                                           ; preds = %6, %.lr.ph
  %20 = phi i32 [ %24, %.lr.ph ], [ %19, %6 ]
  %.033 = phi i32 [ %23, %.lr.ph ], [ %18, %6 ]
  %.pn32 = phi ptr [ %.025, %.lr.ph ], [ %2, %6 ]
  %.pn2931 = phi ptr [ %.027, %.lr.ph ], [ %4, %6 ]
  %.027 = getelementptr inbounds nuw i8, ptr %.pn2931, i64 4
  %.025 = getelementptr inbounds nuw i8, ptr %.pn32, i64 4
  %21 = load i32, ptr %.025, align 4, !tbaa !52
  %22 = add nsw i32 %21, %.033
  %23 = and i32 %22, 65535
  store i32 %23, ptr %.027, align 4, !tbaa !52
  %24 = add i32 %20, -1
  %.not = icmp eq i32 %24, 0
  br i1 %.not, label %._crit_edge, label %.lr.ph, !llvm.loop !53

._crit_edge:                                      ; preds = %.lr.ph, %6
  %25 = getelementptr inbounds nuw i8, ptr %0, i64 524
  %26 = load i32, ptr %25, align 4, !tbaa !43
  %switch.tableidx = add i32 %26, -1
  %27 = icmp ult i32 %switch.tableidx, 7
  br i1 %27, label %switch.lookup, label %32

switch.lookup:                                    ; preds = %._crit_edge
  %28 = zext nneg i32 %switch.tableidx to i64
  %switch.gep = getelementptr inbounds nuw [7 x ptr], ptr @switch.table.jpeg_undifference_first_row, i64 0, i64 %28
  %switch.load = load ptr, ptr %switch.gep, align 8
  %29 = getelementptr inbounds nuw i8, ptr %8, i64 168
  %30 = sext i32 %1 to i64
  %31 = getelementptr inbounds [10 x ptr], ptr %29, i64 0, i64 %30
  store ptr %switch.load, ptr %31, align 8, !tbaa !48
  br label %32

32:                                               ; preds = %._crit_edge, %switch.lookup
  ret void
}